target datalayout = "e-m:e-p270:32:32-p271:32:32-p272:64:64-i64:64-i128:128-f80:128-n8:16:32:64-S128"
target triple = "x86_64-unknown-linux-gnu"

%struct.QTailQLink = type { ptr, ptr }
%struct.BlockDriverState = type { i32, i8, i8, i8, i8, i8, ptr, ptr, ptr, %struct.anon.0, i8, [4096 x i8], [4096 x i8], [4096 x i8], [16 x i8], ptr, [4096 x i8], %struct.BlockLimits, i32, i32, i32, i32, [32 x i8], %union.anon.1, %union.anon.2, %union.anon.3, i32, [16 x %struct.anon.4], ptr, %struct.anon.5, ptr, ptr, %struct.anon.6, ptr, ptr, i32, ptr, i64, i64, %struct.QemuMutex, %struct.anon.7, %struct.Stat64, i32, i32, i32, i32, i32, i32, %struct.QemuMutex, %struct.anon.8, %struct.CoQueue, i8, i32, i8, %struct.CoMutex, ptr, ptr }
%struct.anon.0 = type { ptr }
%struct.BlockLimits = type { i32, i64, i32, i64, i32, i32, i32, i64, i32, i64, i64, i32, i8, i32, i32, i32, i32, i32, i32, i32 }
%union.anon.1 = type { %struct.QTailQLink }
%union.anon.2 = type { %struct.QTailQLink }
%union.anon.3 = type { %struct.QTailQLink }
%struct.anon.4 = type { ptr }
%struct.anon.5 = type { ptr }
%struct.anon.6 = type { ptr }
%struct.anon.7 = type { ptr }
%struct.Stat64 = type { i64 }
%struct.QemuMutex = type { %union.pthread_mutex_t, i8 }
%union.pthread_mutex_t = type { %struct.__pthread_mutex_s }
%struct.__pthread_mutex_s = type { i32, i32, i32, i32, i32, i16, i16, %struct.__pthread_internal_list }
%struct.__pthread_internal_list = type { ptr, ptr }
%struct.anon.8 = type { ptr }
%struct.CoQueue = type { %struct.anon.9 }
%struct.anon.9 = type { ptr, ptr }
%struct.CoMutex = type { i32, ptr, %struct.anon.10, %struct.anon.10, i32, i32, ptr }
%struct.anon.10 = type { ptr }
%struct.BDRVVmdkState = type { %struct.CoMutex, i64, i8, i8, i32, i32, i32, ptr, ptr, ptr }
%struct.BdrvChild = type { ptr, ptr, ptr, i32, ptr, i64, i64, i8, i8, %struct.anon.11, %struct.anon.12 }
%struct.anon.11 = type { ptr, ptr }
%struct.anon.12 = type { ptr, ptr }
%struct.QEMUIOVector = type { ptr, i32, %union.anon.18 }
%union.anon.18 = type { %struct.anon.19 }
%struct.anon.19 = type { i32, %struct.iovec }
%struct.iovec = type { ptr, i64 }

@.str.86 = private unnamed_addr constant [10 x i8] c"parentCID\00", align 1
@.str.87 = private unnamed_addr constant [4 x i8] c"CID\00", align 1
@.str.124 = private unnamed_addr constant [30 x i8] c"VMDK description file too big\00", align 1
@.str.125 = private unnamed_addr constant [4 x i8] c"%x\0A\00", align 1

; Function Attrs: nounwind sspstrong uwtable
define internal i32 @bdrv_co_pread(ptr noundef %child, i64 noundef %offset, i64 noundef %bytes, ptr noundef %buf, i32 noundef %flags) #0 {
entry:
  %child.addr = alloca ptr, align 8
  %offset.addr = alloca i64, align 8
  %bytes.addr = alloca i64, align 8
  %buf.addr = alloca ptr, align 8
  %flags.addr = alloca i32, align 4
  %qiov = alloca %struct.QEMUIOVector, align 8
  store ptr %child, ptr %child.addr, align 8
  store i64 %offset, ptr %offset.addr, align 8
  store i64 %bytes, ptr %bytes.addr, align 8
  store ptr %buf, ptr %buf.addr, align 8
  store i32 %flags, ptr %flags.addr, align 4
  %iov = getelementptr inbounds %struct.QEMUIOVector, ptr %qiov, i32 0, i32 0
  %0 = getelementptr inbounds %struct.QEMUIOVector, ptr %qiov, i32 0, i32 2
  %local_iov = getelementptr inbounds %struct.anon.19, ptr %0, i32 0, i32 1
  store ptr %local_iov, ptr %iov, align 8
  %niov = getelementptr inbounds %struct.QEMUIOVector, ptr %qiov, i32 0, i32 1
  store i32 1, ptr %niov, align 8
  %1 = getelementptr inbounds %struct.QEMUIOVector, ptr %qiov, i32 0, i32 2
  %nalloc = getelementptr inbounds %struct.anon.19, ptr %1, i32 0, i32 0
  store i32 -1, ptr %nalloc, align 8
  %local_iov1 = getelementptr inbounds %struct.anon.19, ptr %1, i32 0, i32 1
  %iov_base = getelementptr inbounds %struct.iovec, ptr %local_iov1, i32 0, i32 0
  %2 = load ptr, ptr %buf.addr, align 8
  store ptr %2, ptr %iov_base, align 8
  %iov_len = getelementptr inbounds %struct.iovec, ptr %local_iov1, i32 0, i32 1
  %3 = load i64, ptr %bytes.addr, align 8
  store i64 %3, ptr %iov_len, align 8
  br label %do.body

do.body:                                          ; preds = %entry
  br label %do.end

do.end:                                           ; preds = %do.body
  call void @assert_bdrv_graph_readable()
  %4 = load ptr, ptr %child.addr, align 8
  %5 = load i64, ptr %offset.addr, align 8
  %6 = load i64, ptr %bytes.addr, align 8
  %7 = load i32, ptr %flags.addr, align 4
  %call = call i32 @bdrv_co_preadv(ptr noundef %4, i64 noundef %5, i64 noundef %6, ptr noundef %qiov, i32 noundef %7)
  ret i32 %call
}

; Function Attrs: nounwind sspstrong uwtable
define internal i32 @vmdk_write_cid(ptr noundef %bs, i32 noundef %cid) #0 {
entry:
  %retval = alloca i32, align 4
  %bs.addr = alloca ptr, align 8
  %cid.addr = alloca i32, align 4
  %desc = alloca ptr, align 8
  %tmp_desc = alloca ptr, align 8
  %p_name = alloca ptr, align 8
  %tmp_str = alloca ptr, align 8
  %s = alloca ptr, align 8
  %ret = alloca i32, align 4
  %desc_buf_size = alloca i64, align 8
  store ptr %bs, ptr %bs.addr, align 8
  store i32 %cid, ptr %cid.addr, align 4
  %0 = load ptr, ptr %bs.addr, align 8
  %opaque = getelementptr inbounds %struct.BlockDriverState, ptr %0, i32 0, i32 7
  %1 = load ptr, ptr %opaque, align 8
  store ptr %1, ptr %s, align 8
  store i32 0, ptr %ret, align 4
  %2 = load ptr, ptr %s, align 8
  %desc_offset = getelementptr inbounds %struct.BDRVVmdkState, ptr %2, i32 0, i32 1
  %3 = load i64, ptr %desc_offset, align 8
  %cmp = icmp eq i64 %3, 0
  br i1 %cmp, label %if.then, label %if.else

if.then:                                          ; preds = %entry
  %4 = load ptr, ptr %bs.addr, align 8
  %file = getelementptr inbounds %struct.BlockDriverState, ptr %4, i32 0, i32 31
  %5 = load ptr, ptr %file, align 8
  %bs1 = getelementptr inbounds %struct.BdrvChild, ptr %5, i32 0, i32 0
  %6 = load ptr, ptr %bs1, align 8
  %call = call i64 @bdrv_getlength(ptr noundef %6)
  store i64 %call, ptr %desc_buf_size, align 8
  %7 = load i64, ptr %desc_buf_size, align 8
  %cmp2 = icmp ugt i64 %7, 16777216
  br i1 %cmp2, label %if.then3, label %if.end

if.then3:                                         ; preds = %if.then
  call void (ptr, ...) @error_report(ptr noundef @.str.124)
  store i32 -27, ptr %retval, align 4
  br label %return

if.end:                                           ; preds = %if.then
  br label %if.end4

if.else:                                          ; preds = %entry
  store i64 10240, ptr %desc_buf_size, align 8
  br label %if.end4

if.end4:                                          ; preds = %if.else, %if.end
  %8 = load i64, ptr %desc_buf_size, align 8
  %call5 = call noalias ptr @g_malloc0(i64 noundef %8) #12
  store ptr %call5, ptr %desc, align 8
  %9 = load i64, ptr %desc_buf_size, align 8
  %call6 = call noalias ptr @g_malloc0(i64 noundef %9) #12
  store ptr %call6, ptr %tmp_desc, align 8
  %10 = load ptr, ptr %bs.addr, align 8
  %file7 = getelementptr inbounds %struct.BlockDriverState, ptr %10, i32 0, i32 31
  %11 = load ptr, ptr %file7, align 8
  %12 = load ptr, ptr %s, align 8
  %desc_offset8 = getelementptr inbounds %struct.BDRVVmdkState, ptr %12, i32 0, i32 1
  %13 = load i64, ptr %desc_offset8, align 8
  %14 = load i64, ptr %desc_buf_size, align 8
  %15 = load ptr, ptr %desc, align 8
  %call9 = call i32 @bdrv_co_pread(ptr noundef %11, i64 noundef %13, i64 noundef %14, ptr noundef %15, i32 noundef 0)
  store i32 %call9, ptr %ret, align 4
  %16 = load i32, ptr %ret, align 4
  %cmp10 = icmp slt i32 %16, 0
  br i1 %cmp10, label %if.then11, label %if.end12

if.then11:                                        ; preds = %if.end4
  br label %out

if.end12:                                         ; preds = %if.end4
  %17 = load ptr, ptr %desc, align 8
  %18 = load i64, ptr %desc_buf_size, align 8
  %sub = sub i64 %18, 1
  %arrayidx = getelementptr i8, ptr %17, i64 %sub
  store i8 0, ptr %arrayidx, align 1
  %19 = load ptr, ptr %desc, align 8
  %call13 = call ptr @strstr(ptr noundef %19, ptr noundef @.str.86) #13
  store ptr %call13, ptr %tmp_str, align 8
  %20 = load ptr, ptr %tmp_str, align 8
  %cmp14 = icmp eq ptr %20, null
  br i1 %cmp14, label %if.then15, label %if.end16

if.then15:                                        ; preds = %if.end12
  store i32 -22, ptr %ret, align 4
  br label %out

if.end16:                                         ; preds = %if.end12
  %21 = load ptr, ptr %tmp_desc, align 8
  %22 = load i64, ptr %desc_buf_size, align 8
  %conv = trunc i64 %22 to i32
  %23 = load ptr, ptr %tmp_str, align 8
  call void @pstrcpy(ptr noundef %21, i32 noundef %conv, ptr noundef %23)
  %24 = load ptr, ptr %desc, align 8
  %call17 = call ptr @strstr(ptr noundef %24, ptr noundef @.str.87) #13
  store ptr %call17, ptr %p_name, align 8
  %25 = load ptr, ptr %p_name, align 8
  %cmp18 = icmp ne ptr %25, null
  br i1 %cmp18, label %if.then20, label %if.end25

if.then20:                                        ; preds = %if.end16
  %26 = load ptr, ptr %p_name, align 8
  %add.ptr = getelementptr i8, ptr %26, i64 4
  store ptr %add.ptr, ptr %p_name, align 8
  %27 = load ptr, ptr %p_name, align 8
  %28 = load i64, ptr %desc_buf_size, align 8
  %29 = load ptr, ptr %p_name, align 8
  %30 = load ptr, ptr %desc, align 8
  %sub.ptr.lhs.cast = ptrtoint ptr %29 to i64
  %sub.ptr.rhs.cast = ptrtoint ptr %30 to i64
  %sub.ptr.sub = sub i64 %sub.ptr.lhs.cast, %sub.ptr.rhs.cast
  %sub21 = sub i64 %28, %sub.ptr.sub
  %31 = load i32, ptr %cid.addr, align 4
  %call22 = call i32 (ptr, i64, ptr, ...) @snprintf(ptr noundef %27, i64 noundef %sub21, ptr noundef @.str.125, i32 noundef %31) #14
  %32 = load ptr, ptr %desc, align 8
  %33 = load i64, ptr %desc_buf_size, align 8
  %conv23 = trunc i64 %33 to i32
  %34 = load ptr, ptr %tmp_desc, align 8
  %call24 = call ptr @pstrcat(ptr noundef %32, i32 noundef %conv23, ptr noundef %34)
  br label %if.end25

if.end25:                                         ; preds = %if.then20, %if.end16
  %35 = load ptr, ptr %bs.addr, align 8
  %file26 = getelementptr inbounds %struct.BlockDriverState, ptr %35, i32 0, i32 31
  %36 = load ptr, ptr %file26, align 8
  %37 = load ptr, ptr %s, align 8
  %desc_offset27 = getelementptr inbounds %struct.BDRVVmdkState, ptr %37, i32 0, i32 1
  %38 = load i64, ptr %desc_offset27, align 8
  %39 = load i64, ptr %desc_buf_size, align 8
  %40 = load ptr, ptr %desc, align 8
  %call28 = call i32 @bdrv_co_pwrite_sync(ptr noundef %36, i64 noundef %38, i64 noundef %39, ptr noundef %40, i32 noundef 0)
  store i32 %call28, ptr %ret, align 4
  br label %out

out:                                              ; preds = %if.end25, %if.then15, %if.then11
  %41 = load ptr, ptr %desc, align 8
  call void @g_free(ptr noundef %41)
  %42 = load ptr, ptr %tmp_desc, align 8
  call void @g_free(ptr noundef %42)
  %43 = load i32, ptr %ret, align 4
  store i32 %43, ptr %retval, align 4
  br label %return

return:                                           ; preds = %out, %if.then3
  %44 = load i32, ptr %retval, align 4
  ret i32 %44
}