; Function Attrs: nounwind sspstrong uwtable
define internal i32 @vmdk_write_cid(ptr noundef readonly captures(none) %bs, i32 noundef %cid) #0 {
entry:
  %qiov.i = alloca %struct.QEMUIOVector, align 8
  %opaque = getelementptr inbounds nuw i8, ptr %bs, i64 24
  %0 = load ptr, ptr %opaque, align 8
  %desc_offset = getelementptr inbounds nuw i8, ptr %0, i64 48
  %1 = load i64, ptr %desc_offset, align 8
  %cmp = icmp eq i64 %1, 0
  br i1 %cmp, label %if.then, label %if.end4

if.then:                                          ; preds = %entry
  %file = getelementptr inbounds nuw i8, ptr %bs, i64 16840
  %2 = load ptr, ptr %file, align 8
  %3 = load ptr, ptr %2, align 8
  %call = tail call i64 @bdrv_getlength(ptr noundef %3) #15
  %cmp2 = icmp ugt i64 %call, 16777216
  br i1 %cmp2, label %if.then3, label %if.end4

if.then3:                                         ; preds = %if.then
  tail call void (ptr, ...) @error_report(ptr noundef nonnull @.str.124) #15
  br label %return

if.end4:                                          ; preds = %entry, %if.then
  %desc_buf_size.0 = phi i64 [ %call, %if.then ], [ 10240, %entry ]
  %call5 = tail call noalias ptr @g_malloc0(i64 noundef %desc_buf_size.0) #18
  %call6 = tail call noalias ptr @g_malloc0(i64 noundef %desc_buf_size.0) #18
  %file7 = getelementptr inbounds nuw i8, ptr %bs, i64 16840
  %4 = load ptr, ptr %file7, align 8
  %5 = load i64, ptr %desc_offset, align 8
  call void @llvm.lifetime.start.p0(i64 40, ptr nonnull %qiov.i)
  %6 = getelementptr inbounds nuw i8, ptr %qiov.i, i64 16
  %local_iov.i = getelementptr inbounds nuw i8, ptr %qiov.i, i64 24
  store ptr %local_iov.i, ptr %qiov.i, align 8
  %niov.i = getelementptr inbounds nuw i8, ptr %qiov.i, i64 8
  store i32 1, ptr %niov.i, align 8
  store i32 -1, ptr %6, align 8
  store ptr %call5, ptr %local_iov.i, align 8
  %iov_len.i = getelementptr inbounds nuw i8, ptr %qiov.i, i64 32
  store i64 %desc_buf_size.0, ptr %iov_len.i, align 8
  call void @assert_bdrv_graph_readable() #15
  %call.i = call i32 @bdrv_co_preadv(ptr noundef %4, i64 noundef %5, i64 noundef %desc_buf_size.0, ptr noundef nonnull %qiov.i, i32 noundef 0) #15
  call void @llvm.lifetime.end.p0(i64 40, ptr nonnull %qiov.i)
  %cmp10 = icmp slt i32 %call.i, 0
  br i1 %cmp10, label %out, label %if.end12

if.end12:                                         ; preds = %if.end4
  %7 = getelementptr i8, ptr %call5, i64 %desc_buf_size.0
  %arrayidx = getelementptr i8, ptr %7, i64 -1
  store i8 0, ptr %arrayidx, align 1
  %call13 = call ptr @strstr(ptr noundef nonnull dereferenceable(1) %call5, ptr noundef nonnull dereferenceable(1) @.str.86) #19
  %cmp14 = icmp eq ptr %call13, null
  br i1 %cmp14, label %out, label %if.end16

if.end16:                                         ; preds = %if.end12
  %conv = trunc nuw nsw i64 %desc_buf_size.0 to i32
  call void @pstrcpy(ptr noundef %call6, i32 noundef %conv, ptr noundef nonnull %call13) #15
  %call17 = call ptr @strstr(ptr noundef nonnull dereferenceable(1) %call5, ptr noundef nonnull dereferenceable(1) @.str.87) #19
  %cmp18.not = icmp eq ptr %call17, null
  br i1 %cmp18.not, label %if.end25, label %if.then20

if.then20:                                        ; preds = %if.end16
  %add.ptr = getelementptr i8, ptr %call17, i64 4
  %sub.ptr.lhs.cast = ptrtoint ptr %add.ptr to i64
  %sub.ptr.rhs.cast = ptrtoint ptr %call5 to i64
  %sub.ptr.sub.neg = add i64 %desc_buf_size.0, %sub.ptr.rhs.cast
  %sub21 = sub i64 %sub.ptr.sub.neg, %sub.ptr.lhs.cast
  %call22 = call i32 (ptr, i64, ptr, ...) @snprintf(ptr noundef %add.ptr, i64 noundef %sub21, ptr noundef nonnull @.str.125, i32 noundef %cid) #15
  %call24 = call ptr @pstrcat(ptr noundef nonnull %call5, i32 noundef %conv, ptr noundef %call6) #15
  br label %if.end25

if.end25:                                         ; preds = %if.then20, %if.end16
  %8 = load ptr, ptr %file7, align 8
  %9 = load i64, ptr %desc_offset, align 8
  %call28 = call i32 @bdrv_co_pwrite_sync(ptr noundef %8, i64 noundef %9, i64 noundef %desc_buf_size.0, ptr noundef nonnull %call5, i32 noundef 0) #15
  br label %out

out:                                              ; preds = %if.end12, %if.end4, %if.end25
  %ret.0 = phi i32 [ %call.i, %if.end4 ], [ %call28, %if.end25 ], [ -22, %if.end12 ]
  call void @g_free(ptr noundef %call5) #15
  call void @g_free(ptr noundef %call6) #15
  br label %return

return:                                           ; preds = %out, %if.then3
  %retval.0 = phi i32 [ -27, %if.then3 ], [ %ret.0, %out ]
  ret i32 %retval.0
}